target datalayout = "e-m:e-p270:32:32-p271:32:32-p272:64:64-i64:64-i128:128-f80:128-n8:16:32:64-S128"
target triple = "x86_64-pc-linux-gnu"

%struct.AVPixFmtDescriptor = type { ptr, i8, i8, i8, i64, [4 x %struct.AVComponentDescriptor], ptr }
%struct.AVComponentDescriptor = type { i32, i32, i32, i32, i32 }
%struct.ImgUtils = type { ptr, i32, ptr }

@.str.1 = private unnamed_addr constant [31 x i8] c"Picture size %ux%u is invalid\0A\00", align 1
@.str.2 = private unnamed_addr constant [108 x i8] c"Picture size %ux%u exceeds specified max pixel count %ld, see the documentation if you wish to increase it\0A\00", align 1
@imgutils_class = internal constant { ptr, ptr, ptr, i32, i32, i32, i32, ptr, ptr, ptr, ptr, i32, [4 x i8] } { ptr @.str.6, ptr @av_default_item_name, ptr null, i32 3932772, i32 8, i32 16, i32 0, ptr null, ptr null, ptr null, ptr null, i32 0, [4 x i8] zeroinitializer }, align 8

; Function Attrs: inlinehint nounwind uwtable
define internal i32 @image_get_linesize(i32 noundef %0, i32 noundef %1, i32 noundef %2, i32 noundef %3, ptr noundef %4) #4 {
  %6 = alloca i32, align 4
  %7 = alloca i32, align 4
  %8 = alloca i32, align 4
  %9 = alloca i32, align 4
  %10 = alloca i32, align 4
  %11 = alloca ptr, align 8
  %12 = alloca i32, align 4
  %13 = alloca i32, align 4
  %14 = alloca i32, align 4
  %15 = alloca i32, align 4
  store i32 %0, ptr %7, align 4, !tbaa !11
  store i32 %1, ptr %8, align 4, !tbaa !11
  store i32 %2, ptr %9, align 4, !tbaa !11
  store i32 %3, ptr %10, align 4, !tbaa !11
  store ptr %4, ptr %11, align 8, !tbaa !9
  call void @llvm.lifetime.start.p0(i64 4, ptr %12) #9
  call void @llvm.lifetime.start.p0(i64 4, ptr %13) #9
  call void @llvm.lifetime.start.p0(i64 4, ptr %14) #9
  %16 = load ptr, ptr %11, align 8, !tbaa !9
  %17 = icmp ne ptr %16, null
  br i1 %17, label %19, label %18

18:                                               ; preds = %5
  store i32 -22, ptr %6, align 4
  store i32 1, ptr %15, align 4
  br label %67

19:                                               ; preds = %5
  %20 = load i32, ptr %7, align 4, !tbaa !11
  %21 = icmp slt i32 %20, 0
  br i1 %21, label %22, label %23

22:                                               ; preds = %19
  store i32 -22, ptr %6, align 4
  store i32 1, ptr %15, align 4
  br label %67

23:                                               ; preds = %19
  %24 = load i32, ptr %10, align 4, !tbaa !11
  %25 = icmp eq i32 %24, 1
  br i1 %25, label %29, label %26

26:                                               ; preds = %23
  %27 = load i32, ptr %10, align 4, !tbaa !11
  %28 = icmp eq i32 %27, 2
  br i1 %28, label %29, label %34

29:                                               ; preds = %26, %23
  %30 = load ptr, ptr %11, align 8, !tbaa !9
  %31 = getelementptr inbounds nuw %struct.AVPixFmtDescriptor, ptr %30, i32 0, i32 2
  %32 = load i8, ptr %31, align 1, !tbaa !24
  %33 = zext i8 %32 to i32
  br label %35

34:                                               ; preds = %26
  br label %35

35:                                               ; preds = %34, %29
  %36 = phi i32 [ %33, %29 ], [ 0, %34 ]
  store i32 %36, ptr %12, align 4, !tbaa !11
  %37 = load i32, ptr %7, align 4, !tbaa !11
  %38 = load i32, ptr %12, align 4, !tbaa !11
  %39 = shl i32 1, %38
  %40 = add nsw i32 %37, %39
  %41 = sub nsw i32 %40, 1
  %42 = load i32, ptr %12, align 4, !tbaa !11
  %43 = ashr i32 %41, %42
  store i32 %43, ptr %13, align 4, !tbaa !11
  %44 = load i32, ptr %13, align 4, !tbaa !11
  %45 = icmp ne i32 %44, 0
  br i1 %45, label %46, label %52

46:                                               ; preds = %35
  %47 = load i32, ptr %9, align 4, !tbaa !11
  %48 = load i32, ptr %13, align 4, !tbaa !11
  %49 = sdiv i32 2147483647, %48
  %50 = icmp sgt i32 %47, %49
  br i1 %50, label %51, label %52

51:                                               ; preds = %46
  store i32 -22, ptr %6, align 4
  store i32 1, ptr %15, align 4
  br label %67

52:                                               ; preds = %46, %35
  %53 = load i32, ptr %9, align 4, !tbaa !11
  %54 = load i32, ptr %13, align 4, !tbaa !11
  %55 = mul nsw i32 %53, %54
  store i32 %55, ptr %14, align 4, !tbaa !11
  %56 = load ptr, ptr %11, align 8, !tbaa !9
  %57 = getelementptr inbounds nuw %struct.AVPixFmtDescriptor, ptr %56, i32 0, i32 4
  %58 = load i64, ptr %57, align 8, !tbaa !20
  %59 = and i64 %58, 4
  %60 = icmp ne i64 %59, 0
  br i1 %60, label %61, label %65

61:                                               ; preds = %52
  %62 = load i32, ptr %14, align 4, !tbaa !11
  %63 = add nsw i32 %62, 7
  %64 = ashr i32 %63, 3
  store i32 %64, ptr %14, align 4, !tbaa !11
  br label %65

65:                                               ; preds = %61, %52
  %66 = load i32, ptr %14, align 4, !tbaa !11
  store i32 %66, ptr %6, align 4
  store i32 1, ptr %15, align 4
  br label %67

67:                                               ; preds = %65, %51, %22, %18
  call void @llvm.lifetime.end.p0(i64 4, ptr %14) #9
  call void @llvm.lifetime.end.p0(i64 4, ptr %13) #9
  call void @llvm.lifetime.end.p0(i64 4, ptr %12) #9
  %68 = load i32, ptr %6, align 4
  ret i32 %68
}

; Function Attrs: nounwind uwtable
define void @av_image_fill_max_pixsteps(ptr noundef %0, ptr noundef %1, ptr noundef %2) #0 {
  %4 = alloca ptr, align 8
  %5 = alloca ptr, align 8
  %6 = alloca ptr, align 8
  %7 = alloca i32, align 4
  %8 = alloca ptr, align 8
  store ptr %0, ptr %4, align 8, !tbaa !4
  store ptr %1, ptr %5, align 8, !tbaa !4
  store ptr %2, ptr %6, align 8, !tbaa !9
  call void @llvm.lifetime.start.p0(i64 4, ptr %7) #9
  %9 = load ptr, ptr %4, align 8, !tbaa !4
  call void @llvm.memset.p0.i64(ptr align 4 %9, i8 0, i64 16, i1 false)
  %10 = load ptr, ptr %5, align 8, !tbaa !4
  %11 = icmp ne ptr %10, null
  br i1 %11, label %12, label %14

12:                                               ; preds = %3
  %13 = load ptr, ptr %5, align 8, !tbaa !4
  call void @llvm.memset.p0.i64(ptr align 4 %13, i8 0, i64 16, i1 false)
  br label %14

14:                                               ; preds = %12, %3
  store i32 0, ptr %7, align 4, !tbaa !11
  br label %15

15:                                               ; preds = %57, %14
  %16 = load i32, ptr %7, align 4, !tbaa !11
  %17 = icmp slt i32 %16, 4
  br i1 %17, label %18, label %60

18:                                               ; preds = %15
  call void @llvm.lifetime.start.p0(i64 8, ptr %8) #9
  %19 = load ptr, ptr %6, align 8, !tbaa !9
  %20 = getelementptr inbounds nuw %struct.AVPixFmtDescriptor, ptr %19, i32 0, i32 5
  %21 = load i32, ptr %7, align 4, !tbaa !11
  %22 = sext i32 %21 to i64
  %23 = getelementptr inbounds [4 x %struct.AVComponentDescriptor], ptr %20, i64 0, i64 %22
  store ptr %23, ptr %8, align 8, !tbaa !13
  %24 = load ptr, ptr %8, align 8, !tbaa !13
  %25 = getelementptr inbounds nuw %struct.AVComponentDescriptor, ptr %24, i32 0, i32 1
  %26 = load i32, ptr %25, align 4, !tbaa !15
  %27 = load ptr, ptr %4, align 8, !tbaa !4
  %28 = load ptr, ptr %8, align 8, !tbaa !13
  %29 = getelementptr inbounds nuw %struct.AVComponentDescriptor, ptr %28, i32 0, i32 0
  %30 = load i32, ptr %29, align 4, !tbaa !17
  %31 = sext i32 %30 to i64
  %32 = getelementptr inbounds i32, ptr %27, i64 %31
  %33 = load i32, ptr %32, align 4, !tbaa !11
  %34 = icmp sgt i32 %26, %33
  br i1 %34, label %35, label %56

35:                                               ; preds = %18
  %36 = load ptr, ptr %8, align 8, !tbaa !13
  %37 = getelementptr inbounds nuw %struct.AVComponentDescriptor, ptr %36, i32 0, i32 1
  %38 = load i32, ptr %37, align 4, !tbaa !15
  %39 = load ptr, ptr %4, align 8, !tbaa !4
  %40 = load ptr, ptr %8, align 8, !tbaa !13
  %41 = getelementptr inbounds nuw %struct.AVComponentDescriptor, ptr %40, i32 0, i32 0
  %42 = load i32, ptr %41, align 4, !tbaa !17
  %43 = sext i32 %42 to i64
  %44 = getelementptr inbounds i32, ptr %39, i64 %43
  store i32 %38, ptr %44, align 4, !tbaa !11
  %45 = load ptr, ptr %5, align 8, !tbaa !4
  %46 = icmp ne ptr %45, null
  br i1 %46, label %47, label %55

47:                                               ; preds = %35
  %48 = load i32, ptr %7, align 4, !tbaa !11
  %49 = load ptr, ptr %5, align 8, !tbaa !4
  %50 = load ptr, ptr %8, align 8, !tbaa !13
  %51 = getelementptr inbounds nuw %struct.AVComponentDescriptor, ptr %50, i32 0, i32 0
  %52 = load i32, ptr %51, align 4, !tbaa !17
  %53 = sext i32 %52 to i64
  %54 = getelementptr inbounds i32, ptr %49, i64 %53
  store i32 %48, ptr %54, align 4, !tbaa !11
  br label %55

55:                                               ; preds = %47, %35
  br label %56

56:                                               ; preds = %55, %18
  call void @llvm.lifetime.end.p0(i64 8, ptr %8) #9
  br label %57

57:                                               ; preds = %56
  %58 = load i32, ptr %7, align 4, !tbaa !11
  %59 = add nsw i32 %58, 1
  store i32 %59, ptr %7, align 4, !tbaa !11
  br label %15, !llvm.loop !18

60:                                               ; preds = %15
  call void @llvm.lifetime.end.p0(i64 4, ptr %7) #9
  ret void
}

; Function Attrs: nounwind uwtable
define i32 @av_image_get_linesize(i32 noundef %0, i32 noundef %1, i32 noundef %2) #0 {
  %4 = alloca i32, align 4
  %5 = alloca i32, align 4
  %6 = alloca i32, align 4
  %7 = alloca i32, align 4
  %8 = alloca ptr, align 8
  %9 = alloca [4 x i32], align 16
  %10 = alloca [4 x i32], align 16
  %11 = alloca i32, align 4
  store i32 %0, ptr %5, align 4, !tbaa !11
  store i32 %1, ptr %6, align 4, !tbaa !11
  store i32 %2, ptr %7, align 4, !tbaa !11
  call void @llvm.lifetime.start.p0(i64 8, ptr %8) #9
  %12 = load i32, ptr %5, align 4, !tbaa !11
  %13 = call ptr @av_pix_fmt_desc_get(i32 noundef %12)
  store ptr %13, ptr %8, align 8, !tbaa !9
  call void @llvm.lifetime.start.p0(i64 16, ptr %9) #9
  call void @llvm.lifetime.start.p0(i64 16, ptr %10) #9
  %14 = load ptr, ptr %8, align 8, !tbaa !9
  %15 = icmp ne ptr %14, null
  br i1 %15, label %16, label %22

16:                                               ; preds = %3
  %17 = load ptr, ptr %8, align 8, !tbaa !9
  %18 = getelementptr inbounds nuw %struct.AVPixFmtDescriptor, ptr %17, i32 0, i32 4
  %19 = load i64, ptr %18, align 8, !tbaa !20
  %20 = and i64 %19, 8
  %21 = icmp ne i64 %20, 0
  br i1 %21, label %22, label %23

22:                                               ; preds = %16, %3
  store i32 -22, ptr %4, align 4
  store i32 1, ptr %11, align 4
  br label %39

23:                                               ; preds = %16
  %24 = getelementptr inbounds [4 x i32], ptr %9, i64 0, i64 0
  %25 = getelementptr inbounds [4 x i32], ptr %10, i64 0, i64 0
  %26 = load ptr, ptr %8, align 8, !tbaa !9
  call void @av_image_fill_max_pixsteps(ptr noundef %24, ptr noundef %25, ptr noundef %26)
  %27 = load i32, ptr %6, align 4, !tbaa !11
  %28 = load i32, ptr %7, align 4, !tbaa !11
  %29 = load i32, ptr %7, align 4, !tbaa !11
  %30 = sext i32 %29 to i64
  %31 = getelementptr inbounds [4 x i32], ptr %9, i64 0, i64 %30
  %32 = load i32, ptr %31, align 4, !tbaa !11
  %33 = load i32, ptr %7, align 4, !tbaa !11
  %34 = sext i32 %33 to i64
  %35 = getelementptr inbounds [4 x i32], ptr %10, i64 0, i64 %34
  %36 = load i32, ptr %35, align 4, !tbaa !11
  %37 = load ptr, ptr %8, align 8, !tbaa !9
  %38 = call i32 @image_get_linesize(i32 noundef %27, i32 noundef %28, i32 noundef %32, i32 noundef %36, ptr noundef %37)
  store i32 %38, ptr %4, align 4
  store i32 1, ptr %11, align 4
  br label %39

39:                                               ; preds = %23, %22
  call void @llvm.lifetime.end.p0(i64 16, ptr %10) #9
  call void @llvm.lifetime.end.p0(i64 16, ptr %9) #9
  call void @llvm.lifetime.end.p0(i64 8, ptr %8) #9
  %40 = load i32, ptr %4, align 4
  ret i32 %40
}

; Function Attrs: nounwind uwtable
define i32 @av_image_check_size2(i32 noundef %0, i32 noundef %1, i64 noundef %2, i32 noundef %3, i32 noundef %4, ptr noundef %5) #0 {
  %7 = alloca i32, align 4
  %8 = alloca i32, align 4
  %9 = alloca i32, align 4
  %10 = alloca i64, align 8
  %11 = alloca i32, align 4
  %12 = alloca i32, align 4
  %13 = alloca ptr, align 8
  %14 = alloca %struct.ImgUtils, align 8
  %15 = alloca i64, align 8
  %16 = alloca i32, align 4
  store i32 %0, ptr %8, align 4, !tbaa !11
  store i32 %1, ptr %9, align 4, !tbaa !11
  store i64 %2, ptr %10, align 8, !tbaa !28
  store i32 %3, ptr %11, align 4, !tbaa !11
  store i32 %4, ptr %12, align 4, !tbaa !11
  store ptr %5, ptr %13, align 8, !tbaa !42
  call void @llvm.lifetime.start.p0(i64 24, ptr %14) #9
  %17 = getelementptr inbounds nuw %struct.ImgUtils, ptr %14, i32 0, i32 0
  store ptr @imgutils_class, ptr %17, align 8, !tbaa !43
  %18 = getelementptr inbounds nuw %struct.ImgUtils, ptr %14, i32 0, i32 1
  %19 = load i32, ptr %12, align 4, !tbaa !11
  store i32 %19, ptr %18, align 8, !tbaa !46
  %20 = getelementptr i8, ptr %14, i64 12
  call void @llvm.memset.p0.i64(ptr align 4 %20, i8 0, i64 4, i1 false)
  %21 = getelementptr inbounds nuw %struct.ImgUtils, ptr %14, i32 0, i32 2
  %22 = load ptr, ptr %13, align 8, !tbaa !42
  store ptr %22, ptr %21, align 8, !tbaa !47
  call void @llvm.lifetime.start.p0(i64 8, ptr %15) #9
  %23 = load i32, ptr %11, align 4, !tbaa !11
  %24 = load i32, ptr %8, align 4, !tbaa !11
  %25 = call i32 @av_image_get_linesize(i32 noundef %23, i32 noundef %24, i32 noundef 0)
  %26 = sext i32 %25 to i64
  store i64 %26, ptr %15, align 8, !tbaa !28
  %27 = load i64, ptr %15, align 8, !tbaa !28
  %28 = icmp sle i64 %27, 0
  br i1 %28, label %29, label %33

29:                                               ; preds = %6
  %30 = load i32, ptr %8, align 4, !tbaa !11
  %31 = zext i32 %30 to i64
  %32 = mul nsw i64 8, %31
  store i64 %32, ptr %15, align 8, !tbaa !28
  br label %33

33:                                               ; preds = %29, %6
  %34 = load i64, ptr %15, align 8, !tbaa !28
  %35 = add nsw i64 %34, 1024
  store i64 %35, ptr %15, align 8, !tbaa !28
  %36 = load i32, ptr %8, align 4, !tbaa !11
  %37 = icmp eq i32 %36, 0
  br i1 %37, label %57, label %38

38:                                               ; preds = %33
  %39 = load i32, ptr %9, align 4, !tbaa !11
  %40 = icmp eq i32 %39, 0
  br i1 %40, label %57, label %41

41:                                               ; preds = %38
  %42 = load i32, ptr %8, align 4, !tbaa !11
  %43 = icmp ugt i32 %42, 2147483647
  br i1 %43, label %57, label %44

44:                                               ; preds = %41
  %45 = load i32, ptr %9, align 4, !tbaa !11
  %46 = icmp ugt i32 %45, 2147483647
  br i1 %46, label %57, label %47

47:                                               ; preds = %44
  %48 = load i64, ptr %15, align 8, !tbaa !28
  %49 = icmp sge i64 %48, 2147483647
  br i1 %49, label %57, label %50

50:                                               ; preds = %47
  %51 = load i64, ptr %15, align 8, !tbaa !28
  %52 = load i32, ptr %9, align 4, !tbaa !11
  %53 = zext i32 %52 to i64
  %54 = add i64 %53, 128
  %55 = mul i64 %51, %54
  %56 = icmp uge i64 %55, 2147483647
  br i1 %56, label %57, label %60

57:                                               ; preds = %50, %47, %44, %41, %38, %33
  %58 = load i32, ptr %8, align 4, !tbaa !11
  %59 = load i32, ptr %9, align 4, !tbaa !11
  call void (ptr, i32, ptr, ...) @av_log(ptr noundef %14, i32 noundef 16, ptr noundef @.str.1, i32 noundef %58, i32 noundef %59)
  store i32 -22, ptr %7, align 4
  store i32 1, ptr %16, align 4
  br label %77

60:                                               ; preds = %50
  %61 = load i64, ptr %10, align 8, !tbaa !28
  %62 = icmp slt i64 %61, 9223372036854775807
  br i1 %62, label %63, label %76

63:                                               ; preds = %60
  %64 = load i32, ptr %8, align 4, !tbaa !11
  %65 = zext i32 %64 to i64
  %66 = load i32, ptr %9, align 4, !tbaa !11
  %67 = zext i32 %66 to i64
  %68 = mul nsw i64 %65, %67
  %69 = load i64, ptr %10, align 8, !tbaa !28
  %70 = icmp sgt i64 %68, %69
  br i1 %70, label %71, label %75

71:                                               ; preds = %63
  %72 = load i32, ptr %8, align 4, !tbaa !11
  %73 = load i32, ptr %9, align 4, !tbaa !11
  %74 = load i64, ptr %10, align 8, !tbaa !28
  call void (ptr, i32, ptr, ...) @av_log(ptr noundef %14, i32 noundef 16, ptr noundef @.str.2, i32 noundef %72, i32 noundef %73, i64 noundef %74)
  store i32 -22, ptr %7, align 4
  store i32 1, ptr %16, align 4
  br label %77

75:                                               ; preds = %63
  br label %76

76:                                               ; preds = %75, %60
  store i32 0, ptr %7, align 4
  store i32 1, ptr %16, align 4
  br label %77

77:                                               ; preds = %76, %71, %57
  call void @llvm.lifetime.end.p0(i64 8, ptr %15) #9
  call void @llvm.lifetime.end.p0(i64 24, ptr %14) #9
  %78 = load i32, ptr %7, align 4
  ret i32 %78
}