; Function Attrs: nounwind uwtable
define range(i32 -22, 1) i32 @av_image_check_size2(i32 noundef %0, i32 noundef %1, i64 noundef %2, i32 noundef %3, i32 noundef %4, ptr noundef %5) local_unnamed_addr #3 {
  %7 = alloca [4 x i32], align 16
  %8 = alloca [4 x i32], align 16
  %9 = alloca %struct.ImgUtils, align 8
  call void @llvm.lifetime.start.p0(i64 24, ptr nonnull %9) #11
  store ptr @imgutils_class, ptr %9, align 8, !tbaa !31
  %10 = getelementptr inbounds nuw i8, ptr %9, i64 8
  store i32 %4, ptr %10, align 8, !tbaa !34
  %11 = getelementptr inbounds nuw i8, ptr %9, i64 12
  store i32 0, ptr %11, align 4
  %12 = getelementptr inbounds nuw i8, ptr %9, i64 16
  store ptr %5, ptr %12, align 8, !tbaa !35
  %13 = tail call ptr @av_pix_fmt_desc_get(i32 noundef %3) #11
  call void @llvm.lifetime.start.p0(i64 16, ptr nonnull %7) #11
  call void @llvm.lifetime.start.p0(i64 16, ptr nonnull %8) #11
  %.not.i = icmp eq ptr %13, null
  br i1 %.not.i, label %av_image_get_linesize.exit.thread, label %14

14:                                               ; preds = %6
  %15 = getelementptr inbounds nuw i8, ptr %13, i64 16
  %16 = load i64, ptr %15, align 8, !tbaa !13
  %17 = and i64 %16, 8
  %.not10.i = icmp eq i64 %17, 0
  br i1 %.not10.i, label %18, label %av_image_get_linesize.exit.thread

18:                                               ; preds = %14
  call void @llvm.memset.p0.i64(ptr noundef nonnull align 16 dereferenceable(16) %7, i8 0, i64 16, i1 false)
  call void @llvm.memset.p0.i64(ptr noundef nonnull align 16 dereferenceable(16) %8, i8 0, i64 16, i1 false)
  %19 = getelementptr inbounds nuw i8, ptr %13, i64 24
  br label %.split.i.i

.split.i.i:                                       ; preds = %31, %18
  %indvars.iv.i.i = phi i64 [ 0, %18 ], [ %indvars.iv.next.i.i, %31 ]
  %20 = getelementptr inbounds nuw [4 x %struct.AVComponentDescriptor], ptr %19, i64 0, i64 %indvars.iv.i.i
  %21 = getelementptr inbounds nuw i8, ptr %20, i64 4
  %22 = load i32, ptr %21, align 4, !tbaa !4
  %23 = load i32, ptr %20, align 4, !tbaa !9
  %24 = sext i32 %23 to i64
  %25 = getelementptr inbounds i32, ptr %7, i64 %24
  %26 = load i32, ptr %25, align 4, !tbaa !10
  %27 = icmp sgt i32 %22, %26
  br i1 %27, label %28, label %31

28:                                               ; preds = %.split.i.i
  store i32 %22, ptr %25, align 4, !tbaa !10
  %29 = getelementptr inbounds i32, ptr %8, i64 %24
  %30 = trunc nuw nsw i64 %indvars.iv.i.i to i32
  store i32 %30, ptr %29, align 4, !tbaa !10
  br label %31

31:                                               ; preds = %28, %.split.i.i
  %indvars.iv.next.i.i = add nuw nsw i64 %indvars.iv.i.i, 1
  %exitcond.not.i.i = icmp eq i64 %indvars.iv.next.i.i, 4
  br i1 %exitcond.not.i.i, label %av_image_fill_max_pixsteps.exit.i, label %.split.i.i, !llvm.loop !11

av_image_fill_max_pixsteps.exit.i:                ; preds = %31
  %32 = load i32, ptr %7, align 16, !tbaa !10
  %33 = icmp slt i32 %0, 0
  br i1 %33, label %av_image_get_linesize.exit.thread, label %34

34:                                               ; preds = %av_image_fill_max_pixsteps.exit.i
  %35 = load i32, ptr %8, align 16, !tbaa !10
  %36 = add i32 %35, -1
  %or.cond.i.i = icmp ult i32 %36, 2
  br i1 %or.cond.i.i, label %37, label %41

37:                                               ; preds = %34
  %38 = getelementptr inbounds nuw i8, ptr %13, i64 9
  %39 = load i8, ptr %38, align 1, !tbaa !18
  %40 = zext i8 %39 to i32
  br label %41

41:                                               ; preds = %37, %34
  %42 = phi i32 [ %40, %37 ], [ 0, %34 ]
  %43 = shl nuw i32 1, %42
  %44 = add nsw i32 %0, -1
  %45 = add i32 %44, %43
  %46 = ashr i32 %45, %42
  %.not.i.i = icmp eq i32 %46, 0
  br i1 %.not.i.i, label %av_image_get_linesize.exit, label %47

47:                                               ; preds = %41
  %48 = sdiv i32 2147483647, %46
  %49 = icmp sgt i32 %32, %48
  br i1 %49, label %av_image_get_linesize.exit.thread, label %av_image_get_linesize.exit

av_image_get_linesize.exit.thread:                ; preds = %14, %6, %av_image_fill_max_pixsteps.exit.i, %47
  call void @llvm.lifetime.end.p0(i64 16, ptr nonnull %8) #11
  call void @llvm.lifetime.end.p0(i64 16, ptr nonnull %7) #11
  %50 = zext i32 %0 to i64
  %51 = shl nuw nsw i64 %50, 3
  br label %60

av_image_get_linesize.exit:                       ; preds = %41, %47
  %52 = mul nsw i32 %46, %32
  %53 = and i64 %16, 4
  %.not21.i.i = icmp eq i64 %53, 0
  %54 = add nsw i32 %52, 7
  %55 = ashr i32 %54, 3
  %.0.i.i = select i1 %.not21.i.i, i32 %52, i32 %55
  %.0.i.i.fr = freeze i32 %.0.i.i
  call void @llvm.lifetime.end.p0(i64 16, ptr nonnull %8) #11
  call void @llvm.lifetime.end.p0(i64 16, ptr nonnull %7) #11
  %56 = zext nneg i32 %.0.i.i.fr to i64
  %57 = icmp slt i32 %.0.i.i.fr, 1
  %58 = zext nneg i32 %0 to i64
  %59 = shl nuw nsw i64 %58, 3
  %spec.select = select i1 %57, i64 %59, i64 %56
  br label %60

60:                                               ; preds = %av_image_get_linesize.exit, %av_image_get_linesize.exit.thread
  %61 = phi i64 [ %50, %av_image_get_linesize.exit.thread ], [ %58, %av_image_get_linesize.exit ]
  %62 = phi i64 [ %51, %av_image_get_linesize.exit.thread ], [ %spec.select, %av_image_get_linesize.exit ]
  %63 = icmp slt i32 %0, 1
  %64 = icmp slt i32 %1, 1
  %or.cond5 = or i1 %63, %64
  %65 = icmp sgt i64 %62, 2147482622
  %or.cond7 = select i1 %or.cond5, i1 true, i1 %65
  br i1 %or.cond7, label %72, label %66

66:                                               ; preds = %60
  %67 = add nuw nsw i64 %62, 1024
  %68 = zext nneg i32 %1 to i64
  %69 = add nuw nsw i64 %68, 128
  %70 = mul nsw i64 %67, %69
  %71 = icmp ugt i64 %70, 2147483646
  br i1 %71, label %72, label %73

72:                                               ; preds = %66, %60
  call void (ptr, i32, ptr, ...) @av_log(ptr noundef nonnull %9, i32 noundef 16, ptr noundef nonnull @.str.1, i32 noundef %0, i32 noundef %1) #11
  br label %77

73:                                               ; preds = %66
  %.not = icmp ne i64 %2, 9223372036854775807
  %74 = mul nuw nsw i64 %61, %68
  %75 = icmp sgt i64 %74, %2
  %or.cond = select i1 %.not, i1 %75, i1 false
  br i1 %or.cond, label %76, label %77

76:                                               ; preds = %73
  call void (ptr, i32, ptr, ...) @av_log(ptr noundef nonnull %9, i32 noundef 16, ptr noundef nonnull @.str.2, i32 noundef %0, i32 noundef %1, i64 noundef %2) #11
  br label %77

77:                                               ; preds = %73, %76, %72
  %.030 = phi i32 [ -22, %72 ], [ -22, %76 ], [ 0, %73 ]
  call void @llvm.lifetime.end.p0(i64 24, ptr nonnull %9) #11
  ret i32 %.030
}